target datalayout = "e-m:e-p270:32:32-p271:32:32-p272:64:64-i64:64-i128:128-f80:128-n8:16:32:64-S128"
target triple = "x86_64-pc-linux-gnu"

%struct.LexState = type { ptr, ptr, %union.TValue, %union.TValue, ptr, ptr, i32, i32, i32, %struct.SBuf, ptr, ptr, i32, i32, ptr, ptr, ptr, ptr, i32, i32, ptr, i32, i32, i32, i32 }
%union.TValue = type { i64 }
%struct.SBuf = type { ptr, ptr, ptr, %struct.MRef }
%struct.MRef = type { i64 }
%struct.lua_State = type { %struct.GCRef, i8, i8, i8, i8, %struct.MRef, %struct.GCRef, ptr, ptr, %struct.MRef, %struct.MRef, %struct.GCRef, %struct.GCRef, ptr, i32 }
%struct.GCRef = type { i64 }
%struct.global_State = type { ptr, ptr, %struct.GCState, %struct.GCstr, i8, i8, i8, i8, %struct.StrInternState, i32, %struct.GCRef, %struct.SBuf, %union.TValue, %union.TValue, %struct.Node, %union.TValue, %struct.GCupval, i32, i32, ptr, ptr, ptr, i32, i32, %struct.GCRef, %struct.MRef, %struct.MRef, %struct.PRNGState, [39 x %struct.GCRef] }
%struct.GCState = type { i64, i64, i8, i8, i8, i8, i32, %struct.GCRef, %struct.MRef, %struct.GCRef, %struct.GCRef, %struct.GCRef, %struct.GCRef, i64, i64, i32, i32, %struct.MRef }
%struct.GCstr = type { %struct.GCRef, i8, i8, i8, i8, i32, i32, i32 }
%struct.StrInternState = type { ptr, i32, i32, i32, i8, i8, i8, i8, i64 }
%struct.Node = type { %union.TValue, %union.TValue, %struct.MRef }
%struct.GCupval = type { %struct.GCRef, i8, i8, i8, i8, %union.anon, %struct.MRef, i32 }
%union.anon = type { %struct.anon.1 }
%struct.anon.1 = type { %struct.GCRef, %struct.GCRef }
%struct.PRNGState = type { [4 x i64] }
%struct.GCcdata = type { %struct.GCRef, i8, i8, i16 }

@lj_char_bits = external hidden constant [257 x i8], align 16

; Function Attrs: alwaysinline nounwind uwtable
define internal ptr @lj_buf_more(ptr noundef %0, i32 noundef %1) #2 {
  %3 = alloca ptr, align 8
  %4 = alloca ptr, align 8
  %5 = alloca i32, align 4
  store ptr %0, ptr %4, align 8, !tbaa !63
  store i32 %1, ptr %5, align 4, !tbaa !11
  %6 = load i32, ptr %5, align 4, !tbaa !11
  %7 = load ptr, ptr %4, align 8, !tbaa !63
  %8 = getelementptr inbounds nuw %struct.SBuf, ptr %7, i32 0, i32 1
  %9 = load ptr, ptr %8, align 8, !tbaa !66
  %10 = load ptr, ptr %4, align 8, !tbaa !63
  %11 = getelementptr inbounds nuw %struct.SBuf, ptr %10, i32 0, i32 0
  %12 = load ptr, ptr %11, align 8, !tbaa !81
  %13 = ptrtoint ptr %9 to i64
  %14 = ptrtoint ptr %12 to i64
  %15 = sub i64 %13, %14
  %16 = trunc i64 %15 to i32
  %17 = icmp ugt i32 %6, %16
  %18 = xor i1 %17, true
  %19 = xor i1 %18, true
  %20 = zext i1 %19 to i32
  %21 = sext i32 %20 to i64
  %22 = call i64 @llvm.expect.i64(i64 %21, i64 0)
  %23 = icmp ne i64 %22, 0
  br i1 %23, label %24, label %28

24:                                               ; preds = %2
  %25 = load ptr, ptr %4, align 8, !tbaa !63
  %26 = load i32, ptr %5, align 4, !tbaa !11
  %27 = call ptr @lj_buf_more2(ptr noundef %25, i32 noundef %26)
  store ptr %27, ptr %3, align 8
  br label %32

28:                                               ; preds = %2
  %29 = load ptr, ptr %4, align 8, !tbaa !63
  %30 = getelementptr inbounds nuw %struct.SBuf, ptr %29, i32 0, i32 0
  %31 = load ptr, ptr %30, align 8, !tbaa !81
  store ptr %31, ptr %3, align 8
  br label %32

32:                                               ; preds = %28, %24
  %33 = load ptr, ptr %3, align 8
  ret ptr %33
}

; Function Attrs: alwaysinline nounwind uwtable
define internal void @lj_buf_putb(ptr noundef %0, i32 noundef %1) #2 {
  %3 = alloca ptr, align 8
  %4 = alloca i32, align 4
  %5 = alloca ptr, align 8
  store ptr %0, ptr %3, align 8, !tbaa !63
  store i32 %1, ptr %4, align 4, !tbaa !11
  call void @llvm.lifetime.start.p0(i64 8, ptr %5) #11
  %6 = load ptr, ptr %3, align 8, !tbaa !63
  %7 = call ptr @lj_buf_more(ptr noundef %6, i32 noundef 1)
  store ptr %7, ptr %5, align 8, !tbaa !73
  %8 = load i32, ptr %4, align 4, !tbaa !11
  %9 = trunc i32 %8 to i8
  %10 = load ptr, ptr %5, align 8, !tbaa !73
  %11 = getelementptr inbounds nuw i8, ptr %10, i32 1
  store ptr %11, ptr %5, align 8, !tbaa !73
  store i8 %9, ptr %10, align 1, !tbaa !38
  %12 = load ptr, ptr %5, align 8, !tbaa !73
  %13 = load ptr, ptr %3, align 8, !tbaa !63
  %14 = getelementptr inbounds nuw %struct.SBuf, ptr %13, i32 0, i32 0
  store ptr %12, ptr %14, align 8, !tbaa !81
  call void @llvm.lifetime.end.p0(i64 8, ptr %5) #11
  ret void
}

; Function Attrs: alwaysinline nounwind uwtable
define internal i32 @lex_next(ptr noundef %0) #2 {
  %2 = alloca ptr, align 8
  store ptr %0, ptr %2, align 8, !tbaa !9
  %3 = load ptr, ptr %2, align 8, !tbaa !9
  %4 = getelementptr inbounds nuw %struct.LexState, ptr %3, i32 0, i32 4
  %5 = load ptr, ptr %4, align 8, !tbaa !24
  %6 = load ptr, ptr %2, align 8, !tbaa !9
  %7 = getelementptr inbounds nuw %struct.LexState, ptr %6, i32 0, i32 5
  %8 = load ptr, ptr %7, align 8, !tbaa !25
  %9 = icmp ult ptr %5, %8
  br i1 %9, label %10, label %17

10:                                               ; preds = %1
  %11 = load ptr, ptr %2, align 8, !tbaa !9
  %12 = getelementptr inbounds nuw %struct.LexState, ptr %11, i32 0, i32 4
  %13 = load ptr, ptr %12, align 8, !tbaa !24
  %14 = getelementptr inbounds nuw i8, ptr %13, i32 1
  store ptr %14, ptr %12, align 8, !tbaa !24
  %15 = load i8, ptr %13, align 1, !tbaa !38
  %16 = zext i8 %15 to i32
  br label %20

17:                                               ; preds = %1
  %18 = load ptr, ptr %2, align 8, !tbaa !9
  %19 = call i32 @lex_more(ptr noundef %18)
  br label %20

20:                                               ; preds = %17, %10
  %21 = phi i32 [ %16, %10 ], [ %19, %17 ]
  %22 = load ptr, ptr %2, align 8, !tbaa !9
  %23 = getelementptr inbounds nuw %struct.LexState, ptr %22, i32 0, i32 6
  store i32 %21, ptr %23, align 8, !tbaa !37
  ret i32 %21
}

; Function Attrs: alwaysinline nounwind uwtable
define internal ptr @lj_cdata_new_(ptr noundef %0, i32 noundef %1, i32 noundef %2) #2 {
  %4 = alloca ptr, align 8
  %5 = alloca i32, align 4
  %6 = alloca i32, align 4
  %7 = alloca ptr, align 8
  store ptr %0, ptr %4, align 8, !tbaa !4
  store i32 %1, ptr %5, align 4, !tbaa !11
  store i32 %2, ptr %6, align 4, !tbaa !11
  call void @llvm.lifetime.start.p0(i64 8, ptr %7) #11
  %8 = load ptr, ptr %4, align 8, !tbaa !4
  %9 = load i32, ptr %6, align 4, !tbaa !11
  %10 = zext i32 %9 to i64
  %11 = add i64 16, %10
  %12 = call ptr @lj_mem_newgco(ptr noundef %8, i64 noundef %11)
  store ptr %12, ptr %7, align 8, !tbaa !85
  %13 = load ptr, ptr %7, align 8, !tbaa !85
  %14 = getelementptr inbounds nuw %struct.GCcdata, ptr %13, i32 0, i32 2
  store i8 10, ptr %14, align 1, !tbaa !93
  %15 = load i32, ptr %5, align 4, !tbaa !11
  %16 = trunc i32 %15 to i16
  %17 = load ptr, ptr %7, align 8, !tbaa !85
  %18 = getelementptr inbounds nuw %struct.GCcdata, ptr %17, i32 0, i32 3
  store i16 %16, ptr %18, align 2, !tbaa !96
  %19 = load ptr, ptr %7, align 8, !tbaa !85
  call void @llvm.lifetime.end.p0(i64 8, ptr %7) #11
  ret ptr %19
}

; Function Attrs: alwaysinline nounwind uwtable
define internal void @lex_save(ptr noundef %0, i32 noundef %1) #2 {
  %3 = alloca ptr, align 8
  %4 = alloca i32, align 4
  store ptr %0, ptr %3, align 8, !tbaa !9
  store i32 %1, ptr %4, align 4, !tbaa !11
  %5 = load ptr, ptr %3, align 8, !tbaa !9
  %6 = getelementptr inbounds nuw %struct.LexState, ptr %5, i32 0, i32 9
  %7 = load i32, ptr %4, align 4, !tbaa !11
  call void @lj_buf_putb(ptr noundef %6, i32 noundef %7)
  ret void
}

; Function Attrs: alwaysinline nounwind uwtable
define internal i32 @lex_savenext(ptr noundef %0) #2 {
  %2 = alloca ptr, align 8
  store ptr %0, ptr %2, align 8, !tbaa !9
  %3 = load ptr, ptr %2, align 8, !tbaa !9
  %4 = load ptr, ptr %2, align 8, !tbaa !9
  %5 = getelementptr inbounds nuw %struct.LexState, ptr %4, i32 0, i32 6
  %6 = load i32, ptr %5, align 8, !tbaa !37
  call void @lex_save(ptr noundef %3, i32 noundef %6)
  %7 = load ptr, ptr %2, align 8, !tbaa !9
  %8 = call i32 @lex_next(ptr noundef %7)
  ret i32 %8
}

; Function Attrs: nounwind uwtable
define internal void @lex_number(ptr noundef %0, ptr noundef %1) #0 {
  %3 = alloca ptr, align 8
  %4 = alloca ptr, align 8
  %5 = alloca i32, align 4
  %6 = alloca i32, align 4
  %7 = alloca i32, align 4
  %8 = alloca ptr, align 8
  %9 = alloca ptr, align 8
  %10 = alloca i64, align 8
  store ptr %0, ptr %3, align 8, !tbaa !9
  store ptr %1, ptr %4, align 8, !tbaa !45
  call void @llvm.lifetime.start.p0(i64 4, ptr %5) #11
  call void @llvm.lifetime.start.p0(i64 4, ptr %6) #11
  call void @llvm.lifetime.start.p0(i64 4, ptr %7) #11
  store i32 101, ptr %7, align 4, !tbaa !11
  %11 = load ptr, ptr %3, align 8, !tbaa !9
  %12 = getelementptr inbounds nuw %struct.LexState, ptr %11, i32 0, i32 6
  %13 = load i32, ptr %12, align 8, !tbaa !37
  store i32 %13, ptr %6, align 4, !tbaa !11
  %14 = icmp eq i32 %13, 48
  br i1 %14, label %15, label %21

15:                                               ; preds = %2
  %16 = load ptr, ptr %3, align 8, !tbaa !9
  %17 = call i32 @lex_savenext(ptr noundef %16)
  %18 = or i32 %17, 32
  %19 = icmp eq i32 %18, 120
  br i1 %19, label %20, label %21

20:                                               ; preds = %15
  store i32 112, ptr %7, align 4, !tbaa !11
  br label %21

21:                                               ; preds = %20, %15, %2
  br label %22

22:                                               ; preds = %56, %21
  %23 = load ptr, ptr %3, align 8, !tbaa !9
  %24 = getelementptr inbounds nuw %struct.LexState, ptr %23, i32 0, i32 6
  %25 = load i32, ptr %24, align 8, !tbaa !37
  %26 = sext i32 %25 to i64
  %27 = getelementptr inbounds i8, ptr getelementptr inbounds (i8, ptr @lj_char_bits, i64 1), i64 %26
  %28 = load i8, ptr %27, align 1, !tbaa !38
  %29 = zext i8 %28 to i32
  %30 = and i32 %29, 128
  %31 = icmp ne i32 %30, 0
  br i1 %31, label %54, label %32

32:                                               ; preds = %22
  %33 = load ptr, ptr %3, align 8, !tbaa !9
  %34 = getelementptr inbounds nuw %struct.LexState, ptr %33, i32 0, i32 6
  %35 = load i32, ptr %34, align 8, !tbaa !37
  %36 = icmp eq i32 %35, 46
  br i1 %36, label %54, label %37

37:                                               ; preds = %32
  %38 = load ptr, ptr %3, align 8, !tbaa !9
  %39 = getelementptr inbounds nuw %struct.LexState, ptr %38, i32 0, i32 6
  %40 = load i32, ptr %39, align 8, !tbaa !37
  %41 = icmp eq i32 %40, 45
  br i1 %41, label %47, label %42

42:                                               ; preds = %37
  %43 = load ptr, ptr %3, align 8, !tbaa !9
  %44 = getelementptr inbounds nuw %struct.LexState, ptr %43, i32 0, i32 6
  %45 = load i32, ptr %44, align 8, !tbaa !37
  %46 = icmp eq i32 %45, 43
  br i1 %46, label %47, label %52

47:                                               ; preds = %42, %37
  %48 = load i32, ptr %6, align 4, !tbaa !11
  %49 = or i32 %48, 32
  %50 = load i32, ptr %7, align 4, !tbaa !11
  %51 = icmp eq i32 %49, %50
  br label %52

52:                                               ; preds = %47, %42
  %53 = phi i1 [ false, %42 ], [ %51, %47 ]
  br label %54

54:                                               ; preds = %52, %32, %22
  %55 = phi i1 [ true, %32 ], [ true, %22 ], [ %53, %52 ]
  br i1 %55, label %56, label %62

56:                                               ; preds = %54
  %57 = load ptr, ptr %3, align 8, !tbaa !9
  %58 = getelementptr inbounds nuw %struct.LexState, ptr %57, i32 0, i32 6
  %59 = load i32, ptr %58, align 8, !tbaa !37
  store i32 %59, ptr %6, align 4, !tbaa !11
  %60 = load ptr, ptr %3, align 8, !tbaa !9
  %61 = call i32 @lex_savenext(ptr noundef %60)
  br label %22, !llvm.loop !82

62:                                               ; preds = %54
  %63 = load ptr, ptr %3, align 8, !tbaa !9
  call void @lex_save(ptr noundef %63, i32 noundef 0)
  %64 = load ptr, ptr %3, align 8, !tbaa !9
  %65 = getelementptr inbounds nuw %struct.LexState, ptr %64, i32 0, i32 9
  %66 = getelementptr inbounds nuw %struct.SBuf, ptr %65, i32 0, i32 2
  %67 = load ptr, ptr %66, align 8, !tbaa !69
  %68 = load ptr, ptr %3, align 8, !tbaa !9
  %69 = getelementptr inbounds nuw %struct.LexState, ptr %68, i32 0, i32 9
  %70 = getelementptr inbounds nuw %struct.SBuf, ptr %69, i32 0, i32 0
  %71 = load ptr, ptr %70, align 8, !tbaa !70
  %72 = load ptr, ptr %3, align 8, !tbaa !9
  %73 = getelementptr inbounds nuw %struct.LexState, ptr %72, i32 0, i32 9
  %74 = getelementptr inbounds nuw %struct.SBuf, ptr %73, i32 0, i32 2
  %75 = load ptr, ptr %74, align 8, !tbaa !69
  %76 = ptrtoint ptr %71 to i64
  %77 = ptrtoint ptr %75 to i64
  %78 = sub i64 %76, %77
  %79 = trunc i64 %78 to i32
  %80 = sub i32 %79, 1
  %81 = load ptr, ptr %4, align 8, !tbaa !45
  %82 = call i32 @lj_strscan_scan(ptr noundef %67, i32 noundef %80, ptr noundef %81, i32 noundef 14)
  store i32 %82, ptr %5, align 4, !tbaa !11
  %83 = load i32, ptr %5, align 4, !tbaa !11
  %84 = icmp eq i32 %83, 1
  br i1 %84, label %85, label %86

85:                                               ; preds = %62
  br label %160

86:                                               ; preds = %62
  %87 = load i32, ptr %5, align 4, !tbaa !11
  %88 = icmp ne i32 %87, 0
  br i1 %88, label %89, label %157

89:                                               ; preds = %86
  call void @llvm.lifetime.start.p0(i64 8, ptr %8) #11
  %90 = load ptr, ptr %3, align 8, !tbaa !9
  %91 = getelementptr inbounds nuw %struct.LexState, ptr %90, i32 0, i32 1
  %92 = load ptr, ptr %91, align 8, !tbaa !13
  store ptr %92, ptr %8, align 8, !tbaa !4
  call void @llvm.lifetime.start.p0(i64 8, ptr %9) #11
  br label %93

93:                                               ; preds = %89
  %94 = load ptr, ptr %8, align 8, !tbaa !4
  %95 = getelementptr inbounds nuw %struct.lua_State, ptr %94, i32 0, i32 5
  %96 = getelementptr inbounds nuw %struct.MRef, ptr %95, i32 0, i32 0
  %97 = load i64, ptr %96, align 8, !tbaa !47
  %98 = inttoptr i64 %97 to ptr
  %99 = getelementptr inbounds nuw %struct.global_State, ptr %98, i32 0, i32 26
  %100 = getelementptr inbounds nuw %struct.MRef, ptr %99, i32 0, i32 0
  %101 = load i64, ptr %100, align 8, !tbaa !83
  %102 = inttoptr i64 %101 to ptr
  %103 = icmp ne ptr %102, null
  br i1 %103, label %127, label %104

104:                                              ; preds = %93
  call void @llvm.lifetime.start.p0(i64 8, ptr %10) #11
  %105 = load ptr, ptr %8, align 8, !tbaa !4
  %106 = getelementptr inbounds nuw %struct.lua_State, ptr %105, i32 0, i32 8
  %107 = load ptr, ptr %106, align 8, !tbaa !41
  %108 = load ptr, ptr %8, align 8, !tbaa !4
  %109 = getelementptr inbounds nuw %struct.lua_State, ptr %108, i32 0, i32 10
  %110 = getelementptr inbounds nuw %struct.MRef, ptr %109, i32 0, i32 0
  %111 = load i64, ptr %110, align 8, !tbaa !84
  %112 = inttoptr i64 %111 to ptr
  %113 = ptrtoint ptr %107 to i64
  %114 = ptrtoint ptr %112 to i64
  %115 = sub i64 %113, %114
  store i64 %115, ptr %10, align 8, !tbaa !51
  %116 = load ptr, ptr %8, align 8, !tbaa !4
  %117 = call i32 @luaopen_ffi(ptr noundef %116)
  %118 = load ptr, ptr %8, align 8, !tbaa !4
  %119 = getelementptr inbounds nuw %struct.lua_State, ptr %118, i32 0, i32 10
  %120 = getelementptr inbounds nuw %struct.MRef, ptr %119, i32 0, i32 0
  %121 = load i64, ptr %120, align 8, !tbaa !84
  %122 = inttoptr i64 %121 to ptr
  %123 = load i64, ptr %10, align 8, !tbaa !51
  %124 = getelementptr inbounds i8, ptr %122, i64 %123
  %125 = load ptr, ptr %8, align 8, !tbaa !4
  %126 = getelementptr inbounds nuw %struct.lua_State, ptr %125, i32 0, i32 8
  store ptr %124, ptr %126, align 8, !tbaa !41
  call void @llvm.lifetime.end.p0(i64 8, ptr %10) #11
  br label %127

127:                                              ; preds = %104, %93
  br label %128

128:                                              ; preds = %127
  br label %129

129:                                              ; preds = %128
  %130 = load i32, ptr %5, align 4, !tbaa !11
  %131 = icmp eq i32 %130, 2
  br i1 %131, label %132, label %143

132:                                              ; preds = %129
  %133 = load ptr, ptr %8, align 8, !tbaa !4
  %134 = call ptr @lj_cdata_new_(ptr noundef %133, i32 noundef 16, i32 noundef 16)
  store ptr %134, ptr %9, align 8, !tbaa !85
  %135 = load ptr, ptr %9, align 8, !tbaa !85
  %136 = getelementptr inbounds %struct.GCcdata, ptr %135, i64 1
  %137 = getelementptr inbounds double, ptr %136, i64 0
  store double 0.000000e+00, ptr %137, align 8, !tbaa !87
  %138 = load ptr, ptr %4, align 8, !tbaa !45
  %139 = load double, ptr %138, align 8, !tbaa !38
  %140 = load ptr, ptr %9, align 8, !tbaa !85
  %141 = getelementptr inbounds %struct.GCcdata, ptr %140, i64 1
  %142 = getelementptr inbounds double, ptr %141, i64 1
  store double %139, ptr %142, align 8, !tbaa !87
  br label %153

143:                                              ; preds = %129
  %144 = load ptr, ptr %8, align 8, !tbaa !4
  %145 = load i32, ptr %5, align 4, !tbaa !11
  %146 = icmp eq i32 %145, 5
  %147 = select i1 %146, i32 11, i32 12
  %148 = call ptr @lj_cdata_new_(ptr noundef %144, i32 noundef %147, i32 noundef 8)
  store ptr %148, ptr %9, align 8, !tbaa !85
  %149 = load ptr, ptr %4, align 8, !tbaa !45
  %150 = load i64, ptr %149, align 8, !tbaa !38
  %151 = load ptr, ptr %9, align 8, !tbaa !85
  %152 = getelementptr inbounds %struct.GCcdata, ptr %151, i64 1
  store i64 %150, ptr %152, align 8, !tbaa !51
  br label %153

153:                                              ; preds = %143, %132
  %154 = load ptr, ptr %3, align 8, !tbaa !9
  %155 = load ptr, ptr %4, align 8, !tbaa !45
  %156 = load ptr, ptr %9, align 8, !tbaa !85
  call void @lj_parse_keepcdata(ptr noundef %154, ptr noundef %155, ptr noundef %156)
  call void @llvm.lifetime.end.p0(i64 8, ptr %9) #11
  call void @llvm.lifetime.end.p0(i64 8, ptr %8) #11
  br label %159

157:                                              ; preds = %86
  %158 = load ptr, ptr %3, align 8, !tbaa !9
  call void (ptr, i32, i32, ...) @lj_lex_error(ptr noundef %158, i32 noundef 286, i32 noundef 2249) #12
  unreachable

159:                                              ; preds = %153
  br label %160

160:                                              ; preds = %159, %85
  call void @llvm.lifetime.end.p0(i64 4, ptr %7) #11
  call void @llvm.lifetime.end.p0(i64 4, ptr %6) #11
  call void @llvm.lifetime.end.p0(i64 4, ptr %5) #11
  ret void
}