; Function Attrs: nounwind uwtable
define internal fastcc void @lex_number(ptr noundef %0, ptr noundef %1) unnamed_addr #0 {
  %3 = getelementptr inbounds nuw i8, ptr %0, i64 48
  %4 = load i32, ptr %3, align 8, !tbaa !26
  %5 = icmp eq i32 %4, 48
  br i1 %5, label %6, label %33

6:                                                ; preds = %2
  %7 = getelementptr inbounds nuw i8, ptr %0, i64 64
  %8 = getelementptr inbounds nuw i8, ptr %0, i64 72
  %9 = load ptr, ptr %8, align 8, !tbaa !51
  %10 = load ptr, ptr %7, align 8, !tbaa !53
  %11 = ptrtoint ptr %9 to i64
  %12 = ptrtoint ptr %10 to i64
  %13 = sub i64 %11, %12
  %14 = and i64 %13, 4294967295
  %15 = icmp eq i64 %14, 0
  br i1 %15, label %16, label %lj_buf_more.exit47, !prof !54

16:                                               ; preds = %6
  %17 = tail call ptr @lj_buf_more2(ptr noundef nonnull %7, i32 noundef 1) #11
  br label %lj_buf_more.exit47

lj_buf_more.exit47:                               ; preds = %6, %16
  %.0.i46 = phi ptr [ %17, %16 ], [ %10, %6 ]
  %18 = getelementptr inbounds nuw i8, ptr %.0.i46, i64 1
  store i8 48, ptr %.0.i46, align 1, !tbaa !29
  store ptr %18, ptr %7, align 8, !tbaa !53
  %19 = getelementptr inbounds nuw i8, ptr %0, i64 32
  %20 = load ptr, ptr %19, align 8, !tbaa !27
  %21 = getelementptr inbounds nuw i8, ptr %0, i64 40
  %22 = load ptr, ptr %21, align 8, !tbaa !28
  %23 = icmp ult ptr %20, %22
  br i1 %23, label %24, label %28

24:                                               ; preds = %lj_buf_more.exit47
  %25 = getelementptr inbounds nuw i8, ptr %20, i64 1
  store ptr %25, ptr %19, align 8, !tbaa !27
  %26 = load i8, ptr %20, align 1, !tbaa !29
  %27 = zext i8 %26 to i32
  br label %lex_savenext.exit

28:                                               ; preds = %lj_buf_more.exit47
  %29 = tail call fastcc i32 @lex_more(ptr noundef nonnull %0)
  br label %lex_savenext.exit

lex_savenext.exit:                                ; preds = %24, %28
  %30 = phi i32 [ %27, %24 ], [ %29, %28 ]
  store i32 %30, ptr %3, align 8, !tbaa !26
  %31 = and i32 %30, -33
  %32 = icmp eq i32 %31, 88
  %spec.select = select i1 %32, i32 112, i32 101
  br label %33

33:                                               ; preds = %lex_savenext.exit, %2
  %.pr = phi i32 [ %4, %2 ], [ %30, %lex_savenext.exit ]
  %.040 = phi i32 [ 101, %2 ], [ %spec.select, %lex_savenext.exit ]
  %34 = getelementptr inbounds nuw i8, ptr %0, i64 64
  %35 = getelementptr inbounds nuw i8, ptr %0, i64 72
  %36 = getelementptr inbounds nuw i8, ptr %0, i64 32
  %37 = getelementptr inbounds nuw i8, ptr %0, i64 40
  br label %38

38:                                               ; preds = %lex_savenext.exit45, %33
  %39 = phi i32 [ %68, %lex_savenext.exit45 ], [ %.pr, %33 ]
  %.0 = phi i32 [ %39, %lex_savenext.exit45 ], [ %4, %33 ]
  %40 = sext i32 %39 to i64
  %41 = getelementptr inbounds i8, ptr getelementptr inbounds nuw (i8, ptr @lj_char_bits, i64 1), i64 %40
  %42 = load i8, ptr %41, align 1, !tbaa !29
  %.not = icmp slt i8 %42, 0
  %43 = icmp eq i32 %39, 46
  %or.cond = or i1 %43, %.not
  br i1 %or.cond, label %.critedge, label %44

44:                                               ; preds = %38
  switch i32 %39, label %.critedge2 [
    i32 45, label %45
    i32 43, label %45
  ]

45:                                               ; preds = %44, %44
  %46 = or i32 %.0, 32
  %47 = icmp eq i32 %46, %.040
  br i1 %47, label %.critedge, label %.critedge2

.critedge:                                        ; preds = %38, %45
  %48 = load ptr, ptr %35, align 8, !tbaa !51
  %49 = load ptr, ptr %34, align 8, !tbaa !53
  %50 = ptrtoint ptr %48 to i64
  %51 = ptrtoint ptr %49 to i64
  %52 = sub i64 %50, %51
  %53 = and i64 %52, 4294967295
  %54 = icmp eq i64 %53, 0
  br i1 %54, label %55, label %lj_buf_more.exit49, !prof !54

55:                                               ; preds = %.critedge
  %56 = tail call ptr @lj_buf_more2(ptr noundef nonnull %34, i32 noundef 1) #11
  br label %lj_buf_more.exit49

lj_buf_more.exit49:                               ; preds = %.critedge, %55
  %.0.i48 = phi ptr [ %56, %55 ], [ %49, %.critedge ]
  %57 = trunc i32 %39 to i8
  %58 = getelementptr inbounds nuw i8, ptr %.0.i48, i64 1
  store i8 %57, ptr %.0.i48, align 1, !tbaa !29
  store ptr %58, ptr %34, align 8, !tbaa !53
  %59 = load ptr, ptr %36, align 8, !tbaa !27
  %60 = load ptr, ptr %37, align 8, !tbaa !28
  %61 = icmp ult ptr %59, %60
  br i1 %61, label %62, label %66

62:                                               ; preds = %lj_buf_more.exit49
  %63 = getelementptr inbounds nuw i8, ptr %59, i64 1
  store ptr %63, ptr %36, align 8, !tbaa !27
  %64 = load i8, ptr %59, align 1, !tbaa !29
  %65 = zext i8 %64 to i32
  br label %lex_savenext.exit45

66:                                               ; preds = %lj_buf_more.exit49
  %67 = tail call fastcc i32 @lex_more(ptr noundef nonnull %0)
  br label %lex_savenext.exit45

lex_savenext.exit45:                              ; preds = %62, %66
  %68 = phi i32 [ %65, %62 ], [ %67, %66 ]
  store i32 %68, ptr %3, align 8, !tbaa !26
  br label %38, !llvm.loop !71

.critedge2:                                       ; preds = %44, %45
  %69 = load ptr, ptr %35, align 8, !tbaa !51
  %70 = load ptr, ptr %34, align 8, !tbaa !53
  %71 = ptrtoint ptr %69 to i64
  %72 = ptrtoint ptr %70 to i64
  %73 = sub i64 %71, %72
  %74 = and i64 %73, 4294967295
  %75 = icmp eq i64 %74, 0
  br i1 %75, label %76, label %lj_buf_more.exit, !prof !54

76:                                               ; preds = %.critedge2
  %77 = tail call ptr @lj_buf_more2(ptr noundef nonnull %34, i32 noundef 1) #11
  br label %lj_buf_more.exit

lj_buf_more.exit:                                 ; preds = %.critedge2, %76
  %.0.i = phi ptr [ %77, %76 ], [ %70, %.critedge2 ]
  %78 = getelementptr inbounds nuw i8, ptr %.0.i, i64 1
  store i8 0, ptr %.0.i, align 1, !tbaa !29
  store ptr %78, ptr %34, align 8, !tbaa !53
  %79 = getelementptr inbounds nuw i8, ptr %0, i64 80
  %80 = load ptr, ptr %79, align 8, !tbaa !57
  %81 = ptrtoint ptr %78 to i64
  %82 = ptrtoint ptr %80 to i64
  %83 = sub i64 %81, %82
  %84 = trunc i64 %83 to i32
  %85 = add i32 %84, -1
  %86 = tail call i32 @lj_strscan_scan(ptr noundef %80, i32 noundef %85, ptr noundef %1, i32 noundef 14) #11
  switch i32 %86, label %87 [
    i32 1, label %125
    i32 0, label %124
  ]

87:                                               ; preds = %lj_buf_more.exit
  %88 = getelementptr inbounds nuw i8, ptr %0, i64 8
  %89 = load ptr, ptr %88, align 8, !tbaa !4
  %90 = getelementptr inbounds nuw i8, ptr %89, i64 16
  %91 = load i64, ptr %90, align 8, !tbaa !34
  %92 = inttoptr i64 %91 to ptr
  %93 = getelementptr inbounds nuw i8, ptr %92, i64 384
  %94 = load i64, ptr %93, align 8, !tbaa !72
  %.not44 = icmp eq i64 %94, 0
  br i1 %.not44, label %95, label %106

95:                                               ; preds = %87
  %96 = getelementptr inbounds nuw i8, ptr %89, i64 40
  %97 = load ptr, ptr %96, align 8, !tbaa !30
  %98 = getelementptr inbounds nuw i8, ptr %89, i64 56
  %99 = load i64, ptr %98, align 8, !tbaa !73
  %100 = ptrtoint ptr %97 to i64
  %101 = sub i64 %100, %99
  %102 = tail call i32 @luaopen_ffi(ptr noundef nonnull %89) #11
  %103 = load i64, ptr %98, align 8, !tbaa !73
  %104 = inttoptr i64 %103 to ptr
  %105 = getelementptr inbounds i8, ptr %104, i64 %101
  store ptr %105, ptr %96, align 8, !tbaa !30
  br label %106

106:                                              ; preds = %95, %87
  %107 = icmp eq i32 %86, 2
  br i1 %107, label %108, label %115

108:                                              ; preds = %106
  %109 = tail call ptr @lj_mem_newgco(ptr noundef nonnull %89, i64 noundef 32) #11
  %110 = getelementptr inbounds nuw i8, ptr %109, i64 9
  store i8 10, ptr %110, align 1, !tbaa !74
  %111 = getelementptr inbounds nuw i8, ptr %109, i64 10
  store i16 16, ptr %111, align 2, !tbaa !77
  %112 = getelementptr inbounds nuw i8, ptr %109, i64 16
  store double 0.000000e+00, ptr %112, align 8, !tbaa !78
  %113 = load double, ptr %1, align 8, !tbaa !29
  %114 = getelementptr inbounds nuw i8, ptr %109, i64 24
  store double %113, ptr %114, align 8, !tbaa !78
  br label %123

115:                                              ; preds = %106
  %116 = icmp eq i32 %86, 5
  %117 = tail call ptr @lj_mem_newgco(ptr noundef nonnull %89, i64 noundef 24) #11
  %118 = getelementptr inbounds nuw i8, ptr %117, i64 9
  store i8 10, ptr %118, align 1, !tbaa !74
  %119 = select i1 %116, i16 11, i16 12
  %120 = getelementptr inbounds nuw i8, ptr %117, i64 10
  store i16 %119, ptr %120, align 2, !tbaa !77
  %121 = load i64, ptr %1, align 8, !tbaa !29
  %122 = getelementptr inbounds nuw i8, ptr %117, i64 16
  store i64 %121, ptr %122, align 8, !tbaa !80
  br label %123

123:                                              ; preds = %115, %108
  %.039 = phi ptr [ %109, %108 ], [ %117, %115 ]
  tail call void @lj_parse_keepcdata(ptr noundef nonnull %0, ptr noundef nonnull %1, ptr noundef nonnull %.039) #11
  br label %125

124:                                              ; preds = %lj_buf_more.exit
  tail call void (ptr, i32, i32, ...) @lj_lex_error(ptr noundef nonnull %0, i32 noundef 286, i32 noundef 2249) #10
  unreachable

125:                                              ; preds = %lj_buf_more.exit, %123
  ret void
}